target datalayout = "e-m:e-p270:32:32-p271:32:32-p272:64:64-i64:64-i128:128-f80:128-n8:16:32:64-S128"
target triple = "x86_64-pc-linux-gnu"

%struct.df_history_t = type { i32, i8, ptr, ptr, float, ptr, ptr, ptr, ptr, ptr, ptr, ptr, ptr, ptr, ptr }

@.str = private unnamed_addr constant [20 x i8] c"dfhist->sum_weights\00", align 1
@.str.1 = private unnamed_addr constant [128 x i8] c"generated/home/dtcxzyw/WorkSpace/Projects/compilers/llvm-opt-benchmark/bench/gromacs/gromacs/src/gromacs/mdtypes/df_history.cpp\00", align 1
@.str.2 = private unnamed_addr constant [15 x i8] c"dfhist->sum_dg\00", align 1
@.str.3 = private unnamed_addr constant [19 x i8] c"dfhist->sum_minvar\00", align 1
@.str.4 = private unnamed_addr constant [21 x i8] c"dfhist->sum_variance\00", align 1
@.str.5 = private unnamed_addr constant [17 x i8] c"dfhist->n_at_lam\00", align 1
@.str.6 = private unnamed_addr constant [17 x i8] c"dfhist->wl_histo\00", align 1
@.str.13 = private unnamed_addr constant [15 x i8] c"dfhist->Tij[i]\00", align 1
@.str.14 = private unnamed_addr constant [25 x i8] c"dfhist->Tij_empirical[i]\00", align 1
@.str.19 = private unnamed_addr constant [19 x i8] c"dfhist->accum_p[i]\00", align 1
@.str.20 = private unnamed_addr constant [19 x i8] c"dfhist->accum_m[i]\00", align 1
@.str.21 = private unnamed_addr constant [20 x i8] c"dfhist->accum_p2[i]\00", align 1
@.str.22 = private unnamed_addr constant [20 x i8] c"dfhist->accum_m2[i]\00", align 1

; Function Attrs: mustprogress uwtable
define internal void @_ZL14gmx_sfree_implIfEvPKcS1_iPT_(ptr noundef %0, ptr noundef %1, i32 noundef %2, ptr noundef %3) #0 {
  %5 = alloca ptr, align 8
  %6 = alloca ptr, align 8
  %7 = alloca i32, align 4
  %8 = alloca ptr, align 8
  store ptr %0, ptr %5, align 8
  store ptr %1, ptr %6, align 8
  store i32 %2, ptr %7, align 4
  store ptr %3, ptr %8, align 8
  %9 = load ptr, ptr %5, align 8
  %10 = load ptr, ptr %6, align 8
  %11 = load i32, ptr %7, align 4
  %12 = load ptr, ptr %8, align 8
  call void @_Z9save_freePKcS0_iPv(ptr noundef %9, ptr noundef %10, i32 noundef %11, ptr noundef %12)
  ret void
}

; Function Attrs: mustprogress uwtable
define internal void @_ZL14gmx_sfree_implIiEvPKcS1_iPT_(ptr noundef %0, ptr noundef %1, i32 noundef %2, ptr noundef %3) #0 {
  %5 = alloca ptr, align 8
  %6 = alloca ptr, align 8
  %7 = alloca i32, align 4
  %8 = alloca ptr, align 8
  store ptr %0, ptr %5, align 8
  store ptr %1, ptr %6, align 8
  store i32 %2, ptr %7, align 4
  store ptr %3, ptr %8, align 8
  %9 = load ptr, ptr %5, align 8
  %10 = load ptr, ptr %6, align 8
  %11 = load i32, ptr %7, align 4
  %12 = load ptr, ptr %8, align 8
  call void @_Z9save_freePKcS0_iPv(ptr noundef %9, ptr noundef %10, i32 noundef %11, ptr noundef %12)
  ret void
}

; Function Attrs: mustprogress uwtable
define void @_Z15done_df_historyP12df_history_t(ptr noundef %0) #0 {
  %2 = alloca ptr, align 8
  %3 = alloca i32, align 4
  store ptr %0, ptr %2, align 8
  %4 = load ptr, ptr %2, align 8
  %5 = getelementptr inbounds %struct.df_history_t, ptr %4, i32 0, i32 0
  %6 = load i32, ptr %5, align 8
  %7 = icmp sgt i32 %6, 0
  br i1 %7, label %8, label %80

8:                                                ; preds = %1
  %9 = load ptr, ptr %2, align 8
  %10 = getelementptr inbounds %struct.df_history_t, ptr %9, i32 0, i32 2
  %11 = load ptr, ptr %10, align 8
  call void @_ZL14gmx_sfree_implIiEvPKcS1_iPT_(ptr noundef @.str.5, ptr noundef @.str.1, i32 noundef 122, ptr noundef %11)
  %12 = load ptr, ptr %2, align 8
  %13 = getelementptr inbounds %struct.df_history_t, ptr %12, i32 0, i32 3
  %14 = load ptr, ptr %13, align 8
  call void @_ZL14gmx_sfree_implIfEvPKcS1_iPT_(ptr noundef @.str.6, ptr noundef @.str.1, i32 noundef 123, ptr noundef %14)
  %15 = load ptr, ptr %2, align 8
  %16 = getelementptr inbounds %struct.df_history_t, ptr %15, i32 0, i32 5
  %17 = load ptr, ptr %16, align 8
  call void @_ZL14gmx_sfree_implIfEvPKcS1_iPT_(ptr noundef @.str, ptr noundef @.str.1, i32 noundef 124, ptr noundef %17)
  %18 = load ptr, ptr %2, align 8
  %19 = getelementptr inbounds %struct.df_history_t, ptr %18, i32 0, i32 6
  %20 = load ptr, ptr %19, align 8
  call void @_ZL14gmx_sfree_implIfEvPKcS1_iPT_(ptr noundef @.str.2, ptr noundef @.str.1, i32 noundef 125, ptr noundef %20)
  %21 = load ptr, ptr %2, align 8
  %22 = getelementptr inbounds %struct.df_history_t, ptr %21, i32 0, i32 7
  %23 = load ptr, ptr %22, align 8
  call void @_ZL14gmx_sfree_implIfEvPKcS1_iPT_(ptr noundef @.str.3, ptr noundef @.str.1, i32 noundef 126, ptr noundef %23)
  %24 = load ptr, ptr %2, align 8
  %25 = getelementptr inbounds %struct.df_history_t, ptr %24, i32 0, i32 8
  %26 = load ptr, ptr %25, align 8
  call void @_ZL14gmx_sfree_implIfEvPKcS1_iPT_(ptr noundef @.str.4, ptr noundef @.str.1, i32 noundef 127, ptr noundef %26)
  store i32 0, ptr %3, align 4
  br label %27

27:                                               ; preds = %76, %8
  %28 = load i32, ptr %3, align 4
  %29 = load ptr, ptr %2, align 8
  %30 = getelementptr inbounds %struct.df_history_t, ptr %29, i32 0, i32 0
  %31 = load i32, ptr %30, align 8
  %32 = icmp slt i32 %28, %31
  br i1 %32, label %33, label %79

33:                                               ; preds = %27
  %34 = load ptr, ptr %2, align 8
  %35 = getelementptr inbounds %struct.df_history_t, ptr %34, i32 0, i32 13
  %36 = load ptr, ptr %35, align 8
  %37 = load i32, ptr %3, align 4
  %38 = sext i32 %37 to i64
  %39 = getelementptr inbounds ptr, ptr %36, i64 %38
  %40 = load ptr, ptr %39, align 8
  call void @_ZL14gmx_sfree_implIfEvPKcS1_iPT_(ptr noundef @.str.13, ptr noundef @.str.1, i32 noundef 131, ptr noundef %40)
  %41 = load ptr, ptr %2, align 8
  %42 = getelementptr inbounds %struct.df_history_t, ptr %41, i32 0, i32 14
  %43 = load ptr, ptr %42, align 8
  %44 = load i32, ptr %3, align 4
  %45 = sext i32 %44 to i64
  %46 = getelementptr inbounds ptr, ptr %43, i64 %45
  %47 = load ptr, ptr %46, align 8
  call void @_ZL14gmx_sfree_implIfEvPKcS1_iPT_(ptr noundef @.str.14, ptr noundef @.str.1, i32 noundef 132, ptr noundef %47)
  %48 = load ptr, ptr %2, align 8
  %49 = getelementptr inbounds %struct.df_history_t, ptr %48, i32 0, i32 9
  %50 = load ptr, ptr %49, align 8
  %51 = load i32, ptr %3, align 4
  %52 = sext i32 %51 to i64
  %53 = getelementptr inbounds ptr, ptr %50, i64 %52
  %54 = load ptr, ptr %53, align 8
  call void @_ZL14gmx_sfree_implIfEvPKcS1_iPT_(ptr noundef @.str.19, ptr noundef @.str.1, i32 noundef 133, ptr noundef %54)
  %55 = load ptr, ptr %2, align 8
  %56 = getelementptr inbounds %struct.df_history_t, ptr %55, i32 0, i32 10
  %57 = load ptr, ptr %56, align 8
  %58 = load i32, ptr %3, align 4
  %59 = sext i32 %58 to i64
  %60 = getelementptr inbounds ptr, ptr %57, i64 %59
  %61 = load ptr, ptr %60, align 8
  call void @_ZL14gmx_sfree_implIfEvPKcS1_iPT_(ptr noundef @.str.20, ptr noundef @.str.1, i32 noundef 134, ptr noundef %61)
  %62 = load ptr, ptr %2, align 8
  %63 = getelementptr inbounds %struct.df_history_t, ptr %62, i32 0, i32 11
  %64 = load ptr, ptr %63, align 8
  %65 = load i32, ptr %3, align 4
  %66 = sext i32 %65 to i64
  %67 = getelementptr inbounds ptr, ptr %64, i64 %66
  %68 = load ptr, ptr %67, align 8
  call void @_ZL14gmx_sfree_implIfEvPKcS1_iPT_(ptr noundef @.str.21, ptr noundef @.str.1, i32 noundef 135, ptr noundef %68)
  %69 = load ptr, ptr %2, align 8
  %70 = getelementptr inbounds %struct.df_history_t, ptr %69, i32 0, i32 12
  %71 = load ptr, ptr %70, align 8
  %72 = load i32, ptr %3, align 4
  %73 = sext i32 %72 to i64
  %74 = getelementptr inbounds ptr, ptr %71, i64 %73
  %75 = load ptr, ptr %74, align 8
  call void @_ZL14gmx_sfree_implIfEvPKcS1_iPT_(ptr noundef @.str.22, ptr noundef @.str.1, i32 noundef 136, ptr noundef %75)
  br label %76

76:                                               ; preds = %33
  %77 = load i32, ptr %3, align 4
  %78 = add nsw i32 %77, 1
  store i32 %78, ptr %3, align 4
  br label %27, !llvm.loop !10

79:                                               ; preds = %27
  br label %80

80:                                               ; preds = %79, %1
  %81 = load ptr, ptr %2, align 8
  %82 = getelementptr inbounds %struct.df_history_t, ptr %81, i32 0, i32 1
  store i8 0, ptr %82, align 4
  %83 = load ptr, ptr %2, align 8
  %84 = getelementptr inbounds %struct.df_history_t, ptr %83, i32 0, i32 0
  store i32 0, ptr %84, align 8
  %85 = load ptr, ptr %2, align 8
  %86 = getelementptr inbounds %struct.df_history_t, ptr %85, i32 0, i32 4
  store float 0.000000e+00, ptr %86, align 8
  ret void
}