; Function Attrs: mustprogress uwtable
define void @_Z15done_df_historyP12df_history_t(ptr nocapture noundef %0) local_unnamed_addr #0 {
  %2 = load i32, ptr %0, align 8
  %3 = icmp sgt i32 %2, 0
  br i1 %3, label %4, label %.loopexit

4:                                                ; preds = %1
  %5 = getelementptr inbounds i8, ptr %0, i64 8
  %6 = load ptr, ptr %5, align 8
  tail call void @_Z9save_freePKcS0_iPv(ptr noundef nonnull @.str.5, ptr noundef nonnull @.str.1, i32 noundef 122, ptr noundef %6)
  %7 = getelementptr inbounds i8, ptr %0, i64 16
  %8 = load ptr, ptr %7, align 8
  tail call void @_Z9save_freePKcS0_iPv(ptr noundef nonnull @.str.6, ptr noundef nonnull @.str.1, i32 noundef 123, ptr noundef %8)
  %9 = getelementptr inbounds i8, ptr %0, i64 32
  %10 = load ptr, ptr %9, align 8
  tail call void @_Z9save_freePKcS0_iPv(ptr noundef nonnull @.str, ptr noundef nonnull @.str.1, i32 noundef 124, ptr noundef %10)
  %11 = getelementptr inbounds i8, ptr %0, i64 40
  %12 = load ptr, ptr %11, align 8
  tail call void @_Z9save_freePKcS0_iPv(ptr noundef nonnull @.str.2, ptr noundef nonnull @.str.1, i32 noundef 125, ptr noundef %12)
  %13 = getelementptr inbounds i8, ptr %0, i64 48
  %14 = load ptr, ptr %13, align 8
  tail call void @_Z9save_freePKcS0_iPv(ptr noundef nonnull @.str.3, ptr noundef nonnull @.str.1, i32 noundef 126, ptr noundef %14)
  %15 = getelementptr inbounds i8, ptr %0, i64 56
  %16 = load ptr, ptr %15, align 8
  tail call void @_Z9save_freePKcS0_iPv(ptr noundef nonnull @.str.4, ptr noundef nonnull @.str.1, i32 noundef 127, ptr noundef %16)
  %17 = load i32, ptr %0, align 8
  %18 = icmp sgt i32 %17, 0
  br i1 %18, label %.lr.ph, label %.loopexit

.lr.ph:                                           ; preds = %4
  %19 = getelementptr inbounds i8, ptr %0, i64 96
  %20 = getelementptr inbounds i8, ptr %0, i64 104
  %21 = getelementptr inbounds i8, ptr %0, i64 64
  %22 = getelementptr inbounds i8, ptr %0, i64 72
  %23 = getelementptr inbounds i8, ptr %0, i64 80
  %24 = getelementptr inbounds i8, ptr %0, i64 88
  br label %25

25:                                               ; preds = %.lr.ph, %25
  %indvars.iv = phi i64 [ 0, %.lr.ph ], [ %indvars.iv.next, %25 ]
  %26 = load ptr, ptr %19, align 8
  %27 = getelementptr inbounds ptr, ptr %26, i64 %indvars.iv
  %28 = load ptr, ptr %27, align 8
  tail call void @_Z9save_freePKcS0_iPv(ptr noundef nonnull @.str.13, ptr noundef nonnull @.str.1, i32 noundef 131, ptr noundef %28)
  %29 = load ptr, ptr %20, align 8
  %30 = getelementptr inbounds ptr, ptr %29, i64 %indvars.iv
  %31 = load ptr, ptr %30, align 8
  tail call void @_Z9save_freePKcS0_iPv(ptr noundef nonnull @.str.14, ptr noundef nonnull @.str.1, i32 noundef 132, ptr noundef %31)
  %32 = load ptr, ptr %21, align 8
  %33 = getelementptr inbounds ptr, ptr %32, i64 %indvars.iv
  %34 = load ptr, ptr %33, align 8
  tail call void @_Z9save_freePKcS0_iPv(ptr noundef nonnull @.str.19, ptr noundef nonnull @.str.1, i32 noundef 133, ptr noundef %34)
  %35 = load ptr, ptr %22, align 8
  %36 = getelementptr inbounds ptr, ptr %35, i64 %indvars.iv
  %37 = load ptr, ptr %36, align 8
  tail call void @_Z9save_freePKcS0_iPv(ptr noundef nonnull @.str.20, ptr noundef nonnull @.str.1, i32 noundef 134, ptr noundef %37)
  %38 = load ptr, ptr %23, align 8
  %39 = getelementptr inbounds ptr, ptr %38, i64 %indvars.iv
  %40 = load ptr, ptr %39, align 8
  tail call void @_Z9save_freePKcS0_iPv(ptr noundef nonnull @.str.21, ptr noundef nonnull @.str.1, i32 noundef 135, ptr noundef %40)
  %41 = load ptr, ptr %24, align 8
  %42 = getelementptr inbounds ptr, ptr %41, i64 %indvars.iv
  %43 = load ptr, ptr %42, align 8
  tail call void @_Z9save_freePKcS0_iPv(ptr noundef nonnull @.str.22, ptr noundef nonnull @.str.1, i32 noundef 136, ptr noundef %43)
  %indvars.iv.next = add nuw nsw i64 %indvars.iv, 1
  %44 = load i32, ptr %0, align 8
  %45 = sext i32 %44 to i64
  %46 = icmp slt i64 %indvars.iv.next, %45
  br i1 %46, label %25, label %.loopexit, !llvm.loop !11

.loopexit:                                        ; preds = %25, %4, %1
  %47 = getelementptr inbounds i8, ptr %0, i64 4
  store i8 0, ptr %47, align 4
  store i32 0, ptr %0, align 8
  %48 = getelementptr inbounds i8, ptr %0, i64 24
  store float 0.000000e+00, ptr %48, align 8
  ret void
}